; Function Attrs: mustprogress uwtable
define noundef zeroext i1 @_ZNK4cvc58internal8TypeNode15isFloatingPointEjj(ptr noundef nonnull readonly align 8 captures(none) dereferenceable(8) %0, i32 noundef %1, i32 noundef %2) local_unnamed_addr #4 align 2 {
  %4 = load ptr, ptr %0, align 8, !tbaa !3
  %5 = getelementptr inbounds nuw i8, ptr %4, i64 8
  %6 = load i64, ptr %5, align 8
  %7 = and i64 %6, 1023
  %8 = icmp eq i64 %7, 159
  br i1 %8, label %9, label %19

9:                                                ; preds = %3
  %10 = tail call noundef nonnull align 4 dereferenceable(8) ptr @_ZNK4cvc58internal4expr9NodeValue8getConstINS0_17FloatingPointSizeEEERKT_v(ptr noundef nonnull align 8 dereferenceable(24) %4)
  %11 = load i32, ptr %10, align 4, !tbaa !265
  %12 = icmp eq i32 %11, %1
  br i1 %12, label %13, label %19

13:                                               ; preds = %9
  %14 = load ptr, ptr %0, align 8, !tbaa !3
  %15 = tail call noundef nonnull align 4 dereferenceable(8) ptr @_ZNK4cvc58internal4expr9NodeValue8getConstINS0_17FloatingPointSizeEEERKT_v(ptr noundef nonnull align 8 dereferenceable(24) %14)
  %16 = getelementptr inbounds nuw i8, ptr %15, i64 4
  %17 = load i32, ptr %16, align 4, !tbaa !267
  %18 = icmp eq i32 %17, %2
  br label %19

19:                                               ; preds = %13, %9, %3
  %20 = phi i1 [ false, %9 ], [ false, %3 ], [ %18, %13 ]
  ret i1 %20
}